; Function Attrs: mustprogress uwtable
define void @_ZN8QuantLib20FdBatesVanillaEngineC2ERKN5boost10shared_ptrINS_10BatesModelEEESt6vectorINS2_INS_8DividendEEESaIS9_EEmmmmRKNS_13FdmSchemeDescE(ptr noundef nonnull align 8 dereferenceable(432) %this, ptr noundef nonnull align 8 dereferenceable(16) %model, ptr nocapture noundef %dividends, i64 noundef %tGrid, i64 noundef %xGrid, i64 noundef %vGrid, i64 noundef %dampingSteps, ptr nocapture noundef nonnull readonly align 8 dereferenceable(24) %schemeDesc) unnamed_addr #8 align 2 {
entry:
  tail call void @_ZN8QuantLib18GenericModelEngineINS_10BatesModelENS_6Option9argumentsENS_14OneAssetOption7resultsEEC2ERKN5boost10shared_ptrIS1_EE(ptr noundef nonnull align 8 dereferenceable(352) %this, ptr noundef nonnull align 8 dereferenceable(16) %model)
  store ptr getelementptr inbounds inrange(-16, 56) (i8, ptr @_ZTVN8QuantLib20FdBatesVanillaEngineE, i64 16), ptr %this, align 8, !tbaa !35
  %add.ptr = getelementptr inbounds i8, ptr %this, i64 56
  store ptr getelementptr inbounds inrange(-16, 32) (i8, ptr @_ZTVN8QuantLib20FdBatesVanillaEngineE, i64 88), ptr %add.ptr, align 8, !tbaa !35
  %dividends_ = getelementptr inbounds nuw i8, ptr %this, i64 352
  %0 = load ptr, ptr %dividends, align 8, !tbaa !88
  store ptr %0, ptr %dividends_, align 8, !tbaa !88
  %_M_finish.i.i.i.i = getelementptr inbounds nuw i8, ptr %this, i64 360
  %_M_finish3.i.i.i.i = getelementptr inbounds nuw i8, ptr %dividends, i64 8
  %1 = load ptr, ptr %_M_finish3.i.i.i.i, align 8, !tbaa !89
  store ptr %1, ptr %_M_finish.i.i.i.i, align 8, !tbaa !89
  %_M_end_of_storage.i.i.i.i = getelementptr inbounds nuw i8, ptr %this, i64 368
  %_M_end_of_storage4.i.i.i.i = getelementptr inbounds nuw i8, ptr %dividends, i64 16
  %2 = load ptr, ptr %_M_end_of_storage4.i.i.i.i, align 8, !tbaa !90
  store ptr %2, ptr %_M_end_of_storage.i.i.i.i, align 8, !tbaa !90
  tail call void @llvm.memset.p0.i64(ptr noundef nonnull align 8 dereferenceable(24) %dividends, i8 0, i64 24, i1 false)
  %tGrid_ = getelementptr inbounds nuw i8, ptr %this, i64 376
  store i64 %tGrid, ptr %tGrid_, align 8, !tbaa !39
  %xGrid_ = getelementptr inbounds nuw i8, ptr %this, i64 384
  store i64 %xGrid, ptr %xGrid_, align 8, !tbaa !73
  %vGrid_ = getelementptr inbounds nuw i8, ptr %this, i64 392
  store i64 %vGrid, ptr %vGrid_, align 8, !tbaa !74
  %dampingSteps_ = getelementptr inbounds nuw i8, ptr %this, i64 400
  store i64 %dampingSteps, ptr %dampingSteps_, align 8, !tbaa !75
  %schemeDesc_ = getelementptr inbounds nuw i8, ptr %this, i64 408
  tail call void @llvm.memcpy.p0.p0.i64(ptr noundef nonnull align 8 dereferenceable(24) %schemeDesc_, ptr noundef nonnull align 8 dereferenceable(24) %schemeDesc, i64 24, i1 false), !tbaa.struct !76
  ret void
}